target datalayout = "e-m:e-p270:32:32-p271:32:32-p272:64:64-i64:64-i128:128-f80:128-n8:16:32:64-S128"
target triple = "x86_64-pc-linux-gnu"

%class.Metadata = type { ptr }
%class.AccessFlags = type { i32 }
%class.NoSafepointVerifier = type { ptr }
%class.Method = type { %class.Metadata, ptr, ptr, ptr, ptr, %class.AccessFlags, i32, %class.MethodFlags, i16, %class.JfrTraceFlag, ptr, ptr, ptr, ptr }
%class.MethodFlags = type { i32 }
%class.JfrTraceFlag = type { i16 }
%class.ConstMethod = type <{ i64, ptr, ptr, i32, %class.ConstMethodFlags, i8, i8, i16, i16, i16, i16, i16, i16, i16, i16, i16, [4 x i8] }>
%class.ConstMethodFlags = type { i32 }
%class.Array.8 = type { i32, [1 x ptr] }
%class.anon.71 = type { i8 }

; Function Attrs: mustprogress nounwind uwtable
define linkonce_odr hidden noundef i64 @_ZZN5ArrayIP6MethodE20base_offset_in_bytesEvENKUlvE_clEv(ptr noundef nonnull align 1 dereferenceable(1) %0) #1 comdat align 2 {
  %2 = alloca ptr, align 8
  %3 = alloca [16 x i8], align 16
  %4 = alloca ptr, align 8
  %5 = alloca ptr, align 8
  store ptr %0, ptr %2, align 8
  %6 = getelementptr inbounds [16 x i8], ptr %3, i64 0, i64 0
  store ptr %6, ptr %4, align 8
  %7 = load ptr, ptr %4, align 8
  %8 = getelementptr inbounds %class.Array.8, ptr %7, i32 0, i32 1
  store ptr %8, ptr %5, align 8
  %9 = load ptr, ptr %5, align 8
  %10 = getelementptr inbounds [16 x i8], ptr %3, i64 0, i64 0
  %11 = ptrtoint ptr %9 to i64
  %12 = ptrtoint ptr %10 to i64
  %13 = sub i64 %11, %12
  ret i64 %13
}

; Function Attrs: mustprogress nounwind uwtable
define linkonce_odr hidden void @_ZN11ConstMethod21set_orig_method_idnumEt(ptr noundef nonnull align 8 dereferenceable(52) %0, i16 noundef zeroext %1) #1 comdat align 2 {
  %3 = alloca ptr, align 8
  %4 = alloca i16, align 2
  store ptr %0, ptr %3, align 8
  store i16 %1, ptr %4, align 2
  %5 = load ptr, ptr %3, align 8
  %6 = load i16, ptr %4, align 2
  %7 = getelementptr inbounds %class.ConstMethod, ptr %5, i32 0, i32 15
  store i16 %6, ptr %7, align 2
  ret void
}

; Function Attrs: mustprogress nounwind uwtable
define linkonce_odr hidden void @_ZN11ConstMethod16set_method_idnumEt(ptr noundef nonnull align 8 dereferenceable(52) %0, i16 noundef zeroext %1) #1 comdat align 2 {
  %3 = alloca ptr, align 8
  %4 = alloca i16, align 2
  store ptr %0, ptr %3, align 8
  store i16 %1, ptr %4, align 2
  %5 = load ptr, ptr %3, align 8
  %6 = load i16, ptr %4, align 2
  %7 = getelementptr inbounds %class.ConstMethod, ptr %5, i32 0, i32 10
  store i16 %6, ptr %7, align 8
  ret void
}

; Function Attrs: mustprogress nounwind uwtable
define linkonce_odr hidden noundef ptr @_ZNK6Method11constMethodEv(ptr noundef nonnull align 8 dereferenceable(88) %0) #1 comdat align 2 {
  %2 = alloca ptr, align 8
  store ptr %0, ptr %2, align 8
  %3 = load ptr, ptr %2, align 8
  %4 = getelementptr inbounds %class.Method, ptr %3, i32 0, i32 1
  %5 = load ptr, ptr %4, align 8
  ret ptr %5
}

; Function Attrs: mustprogress nounwind uwtable
define linkonce_odr hidden noundef ptr @_ZNK5ArrayIP6MethodE4dataEv(ptr noundef nonnull align 8 dereferenceable(16) %0) #1 comdat align 2 {
  %2 = alloca ptr, align 8
  store ptr %0, ptr %2, align 8
  %3 = load ptr, ptr %2, align 8
  %4 = call noundef i32 @_ZN5ArrayIP6MethodE20base_offset_in_bytesEv()
  %5 = sext i32 %4 to i64
  %6 = getelementptr inbounds i8, ptr %3, i64 %5
  ret ptr %6
}

; Function Attrs: mustprogress nounwind uwtable
define linkonce_odr hidden noundef i32 @_ZN5ArrayIP6MethodE20base_offset_in_bytesEv() #1 comdat align 2 {
  %1 = alloca %class.anon.71, align 1
  %2 = call noundef i64 @_ZZN5ArrayIP6MethodE20base_offset_in_bytesEvENKUlvE_clEv(ptr noundef nonnull align 1 dereferenceable(1) %1)
  %3 = trunc i64 %2 to i32
  ret i32 %3
}

; Function Attrs: mustprogress nounwind uwtable
define linkonce_odr hidden void @_ZN6Method21set_orig_method_idnumEt(ptr noundef nonnull align 8 dereferenceable(88) %0, i16 noundef zeroext %1) #1 comdat align 2 {
  %3 = alloca ptr, align 8
  %4 = alloca i16, align 2
  store ptr %0, ptr %3, align 8
  store i16 %1, ptr %4, align 2
  %5 = load ptr, ptr %3, align 8
  %6 = call noundef ptr @_ZNK6Method11constMethodEv(ptr noundef nonnull align 8 dereferenceable(88) %5)
  %7 = load i16, ptr %4, align 2
  call void @_ZN11ConstMethod21set_orig_method_idnumEt(ptr noundef nonnull align 8 dereferenceable(52) %6, i16 noundef zeroext %7)
  ret void
}

; Function Attrs: mustprogress nounwind uwtable
define linkonce_odr hidden void @_ZN6Method16set_method_idnumEt(ptr noundef nonnull align 8 dereferenceable(88) %0, i16 noundef zeroext %1) #1 comdat align 2 {
  %3 = alloca ptr, align 8
  %4 = alloca i16, align 2
  store ptr %0, ptr %3, align 8
  store i16 %1, ptr %4, align 2
  %5 = load ptr, ptr %3, align 8
  %6 = call noundef ptr @_ZNK6Method11constMethodEv(ptr noundef nonnull align 8 dereferenceable(88) %5)
  %7 = load i16, ptr %4, align 2
  call void @_ZN11ConstMethod16set_method_idnumEt(ptr noundef nonnull align 8 dereferenceable(52) %6, i16 noundef zeroext %7)
  ret void
}

; Function Attrs: mustprogress nounwind uwtable
define linkonce_odr hidden noundef ptr @_ZNK5ArrayIP6MethodE2atEi(ptr noundef nonnull align 8 dereferenceable(16) %0, i32 noundef %1) #1 comdat align 2 {
  %3 = alloca ptr, align 8
  %4 = alloca i32, align 4
  store ptr %0, ptr %3, align 8
  store i32 %1, ptr %4, align 4
  %5 = load ptr, ptr %3, align 8
  %6 = call noundef ptr @_ZNK5ArrayIP6MethodE4dataEv(ptr noundef nonnull align 8 dereferenceable(16) %5)
  %7 = load i32, ptr %4, align 4
  %8 = sext i32 %7 to i64
  %9 = getelementptr inbounds ptr, ptr %6, i64 %8
  %10 = load ptr, ptr %9, align 8
  ret ptr %10
}

; Function Attrs: mustprogress nounwind uwtable
define linkonce_odr hidden void @_ZN19NoSafepointVerifierD2Ev(ptr noundef nonnull align 8 dereferenceable(8) %0) unnamed_addr #1 comdat align 2 {
  %2 = alloca ptr, align 8
  store ptr %0, ptr %2, align 8
  ret void
}

; Function Attrs: mustprogress nounwind uwtable
define linkonce_odr hidden noundef ptr @_ZN5ArrayIP6MethodE4dataEv(ptr noundef nonnull align 8 dereferenceable(16) %0) #1 comdat align 2 {
  %2 = alloca ptr, align 8
  store ptr %0, ptr %2, align 8
  %3 = load ptr, ptr %2, align 8
  %4 = call noundef i32 @_ZN5ArrayIP6MethodE20base_offset_in_bytesEv()
  %5 = sext i32 %4 to i64
  %6 = getelementptr inbounds i8, ptr %3, i64 %5
  ret ptr %6
}

; Function Attrs: mustprogress nounwind uwtable
define linkonce_odr hidden void @_ZN19NoSafepointVerifierC2Ev(ptr noundef nonnull align 8 dereferenceable(8) %0) unnamed_addr #1 comdat align 2 {
  %2 = alloca ptr, align 8
  store ptr %0, ptr %2, align 8
  ret void
}

; Function Attrs: mustprogress nounwind uwtable
define linkonce_odr hidden noundef i32 @_ZNK5ArrayIP6MethodE6lengthEv(ptr noundef nonnull align 8 dereferenceable(16) %0) #1 comdat align 2 {
  %2 = alloca ptr, align 8
  store ptr %0, ptr %2, align 8
  %3 = load ptr, ptr %2, align 8
  %4 = getelementptr inbounds %class.Array.8, ptr %3, i32 0, i32 0
  %5 = load i32, ptr %4, align 8
  ret i32 %5
}

; Function Attrs: mustprogress nounwind uwtable
define hidden void @_ZN6Method12sort_methodsEP5ArrayIPS_EbPFiS1_S1_E(ptr noundef %0, i1 noundef zeroext %1, ptr noundef %2) #1 align 2 {
  %4 = alloca ptr, align 8
  %5 = alloca i8, align 1
  %6 = alloca ptr, align 8
  %7 = alloca i32, align 4
  %8 = alloca %class.NoSafepointVerifier, align 8
  %9 = alloca i16, align 2
  %10 = alloca ptr, align 8
  store ptr %0, ptr %4, align 8
  %11 = zext i1 %1 to i8
  store i8 %11, ptr %5, align 1
  store ptr %2, ptr %6, align 8
  %12 = load ptr, ptr %4, align 8
  %13 = call noundef i32 @_ZNK5ArrayIP6MethodE6lengthEv(ptr noundef nonnull align 8 dereferenceable(16) %12)
  store i32 %13, ptr %7, align 4
  %14 = load i32, ptr %7, align 4
  %15 = icmp sgt i32 %14, 1
  br i1 %15, label %16, label %48

16:                                               ; preds = %3
  %17 = load ptr, ptr %6, align 8
  %18 = icmp eq ptr %17, null
  br i1 %18, label %19, label %20

19:                                               ; preds = %16
  store ptr @_ZL17method_comparatorP6MethodS0_, ptr %6, align 8
  br label %20

20:                                               ; preds = %19, %16
  call void @_ZN19NoSafepointVerifierC2Ev(ptr noundef nonnull align 8 dereferenceable(8) %8)
  %21 = load ptr, ptr %4, align 8
  %22 = call noundef ptr @_ZN5ArrayIP6MethodE4dataEv(ptr noundef nonnull align 8 dereferenceable(16) %21)
  %23 = load i32, ptr %7, align 4
  %24 = sext i32 %23 to i64
  %25 = load ptr, ptr %6, align 8
  call void @_ZN9QuickSort4sortIP6MethodPFiS2_S2_EEEvPT_mT0_(ptr noundef %22, i64 noundef %24, ptr noundef %25)
  call void @_ZN19NoSafepointVerifierD2Ev(ptr noundef nonnull align 8 dereferenceable(8) %8) #10
  %26 = load i8, ptr %5, align 1
  %27 = trunc i8 %26 to i1
  br i1 %27, label %28, label %47

28:                                               ; preds = %20
  store i16 0, ptr %9, align 2
  br label %29

29:                                               ; preds = %43, %28
  %30 = load i16, ptr %9, align 2
  %31 = zext i16 %30 to i32
  %32 = load i32, ptr %7, align 4
  %33 = icmp slt i32 %31, %32
  br i1 %33, label %34, label %46

34:                                               ; preds = %29
  %35 = load ptr, ptr %4, align 8
  %36 = load i16, ptr %9, align 2
  %37 = zext i16 %36 to i32
  %38 = call noundef ptr @_ZNK5ArrayIP6MethodE2atEi(ptr noundef nonnull align 8 dereferenceable(16) %35, i32 noundef %37)
  store ptr %38, ptr %10, align 8
  %39 = load ptr, ptr %10, align 8
  %40 = load i16, ptr %9, align 2
  call void @_ZN6Method16set_method_idnumEt(ptr noundef nonnull align 8 dereferenceable(88) %39, i16 noundef zeroext %40)
  %41 = load ptr, ptr %10, align 8
  %42 = load i16, ptr %9, align 2
  call void @_ZN6Method21set_orig_method_idnumEt(ptr noundef nonnull align 8 dereferenceable(88) %41, i16 noundef zeroext %42)
  br label %43

43:                                               ; preds = %34
  %44 = load i16, ptr %9, align 2
  %45 = add i16 %44, 1
  store i16 %45, ptr %9, align 2
  br label %29, !llvm.loop !16

46:                                               ; preds = %29
  br label %47

47:                                               ; preds = %46, %20
  br label %48

48:                                               ; preds = %47, %3
  ret void
}