; Function Attrs: mustprogress nounwind uwtable
define hidden void @_ZN6Method12sort_methodsEP5ArrayIPS_EbPFiS1_S1_E(ptr noundef %0, i1 noundef zeroext %1, ptr noundef %2) local_unnamed_addr #0 align 2 {
  %4 = load i32, ptr %0, align 8
  %5 = icmp sgt i32 %4, 1
  br i1 %5, label %6, label %.loopexit

6:                                                ; preds = %3
  %7 = icmp eq ptr %2, null
  %spec.store.select = select i1 %7, ptr @_ZL17method_comparatorP6MethodS0_, ptr %2
  %8 = getelementptr inbounds i8, ptr %0, i64 8
  %9 = zext nneg i32 %4 to i64
  tail call void @_ZN9QuickSort4sortIP6MethodPFiS2_S2_EEEvPT_mT0_(ptr noundef nonnull %8, i64 noundef %9, ptr noundef nonnull %spec.store.select)
  br i1 %1, label %.preheader, label %.loopexit

.preheader:                                       ; preds = %6, %.preheader
  %.017 = phi i16 [ %18, %.preheader ], [ 0, %6 ]
  %10 = zext i16 %.017 to i64
  %11 = getelementptr inbounds ptr, ptr %8, i64 %10
  %12 = load ptr, ptr %11, align 8
  %13 = getelementptr inbounds i8, ptr %12, i64 8
  %14 = load ptr, ptr %13, align 8
  %15 = getelementptr inbounds i8, ptr %14, i64 40
  store i16 %.017, ptr %15, align 8
  %16 = load ptr, ptr %13, align 8
  %17 = getelementptr inbounds i8, ptr %16, i64 50
  store i16 %.017, ptr %17, align 2
  %18 = add i16 %.017, 1
  %19 = zext i16 %18 to i32
  %20 = icmp ugt i32 %4, %19
  br i1 %20, label %.preheader, label %.loopexit, !llvm.loop !22

.loopexit:                                        ; preds = %.preheader, %6, %3
  ret void
}